; Function Attrs: nounwind uwtable
define zeroext i8 @l___private_Lean_Compiler_LCNF_SpecInfo_0__Lean_Compiler_LCNF_isNoSpecType(ptr noundef %0, ptr noundef %1) local_unnamed_addr #2 {
  br label %3

3:                                                ; preds = %13, %2
  %.016 = phi ptr [ %1, %2 ], [ %15, %13 ]
  %4 = ptrtoint ptr %.016 to i64
  %5 = and i64 %4, 1
  %.not.i26 = icmp eq i64 %5, 0
  br i1 %.not.i26, label %9, label %6

6:                                                ; preds = %3
  %7 = lshr i64 %4, 1
  %8 = trunc i64 %7 to i32
  br label %lean_obj_tag.exit

9:                                                ; preds = %3
  %10 = getelementptr i8, ptr %.016, i64 4
  %.val.i = load i32, ptr %10, align 4
  %11 = lshr i32 %.val.i, 24
  br label %lean_obj_tag.exit

lean_obj_tag.exit:                                ; preds = %6, %9
  %.0.i = phi i32 [ %8, %6 ], [ %11, %9 ]
  %12 = icmp eq i32 %.0.i, 7
  br i1 %12, label %13, label %16

13:                                               ; preds = %lean_obj_tag.exit
  %14 = getelementptr inbounds nuw i8, ptr %.016, i64 24
  %15 = load ptr, ptr %14, align 8, !tbaa !9
  br label %3

16:                                               ; preds = %lean_obj_tag.exit
  %17 = tail call ptr @l_Lean_Expr_getAppFn(ptr noundef %.016) #8
  %18 = ptrtoint ptr %17 to i64
  %19 = and i64 %18, 1
  %.not.i27 = icmp eq i64 %19, 0
  br i1 %.not.i27, label %lean_obj_tag.exit30.thread, label %lean_obj_tag.exit30

lean_obj_tag.exit30:                              ; preds = %16
  %20 = and i64 %18, 8589934590
  %21 = icmp eq i64 %20, 8
  br i1 %21, label %24, label %lean_dec.exit17

lean_obj_tag.exit30.thread:                       ; preds = %16
  %22 = getelementptr i8, ptr %17, i64 4
  %.val.i29 = load i32, ptr %22, align 4
  %.mask = and i32 %.val.i29, -16777216
  %23 = icmp eq i32 %.mask, 67108864
  br i1 %23, label %24, label %.thread

24:                                               ; preds = %lean_obj_tag.exit30.thread, %lean_obj_tag.exit30
  %25 = getelementptr inbounds nuw i8, ptr %17, i64 8
  %26 = load ptr, ptr %25, align 8, !tbaa !9
  %27 = ptrtoint ptr %26 to i64
  %28 = and i64 %27, 1
  %.not34 = icmp eq i64 %28, 0
  br i1 %.not34, label %29, label %lean_inc.exit

29:                                               ; preds = %24
  %.val.i31 = load i32, ptr %26, align 4, !tbaa !4
  %30 = icmp sgt i32 %.val.i31, 0
  br i1 %30, label %31, label %33, !prof !11

31:                                               ; preds = %29
  %32 = add nuw i32 %.val.i31, 1
  store i32 %32, ptr %26, align 4, !tbaa !4
  br label %lean_inc.exit

33:                                               ; preds = %29
  %.not.i32 = icmp eq i32 %.val.i31, 0
  br i1 %.not.i32, label %lean_inc.exit, label %34

34:                                               ; preds = %33
  tail call void @lean_inc_ref_cold(ptr noundef nonnull %26) #8
  br label %lean_inc.exit

lean_inc.exit:                                    ; preds = %34, %33, %31, %24
  br i1 %.not.i27, label %35, label %lean_dec.exit19

35:                                               ; preds = %lean_inc.exit
  %36 = load i32, ptr %17, align 4, !tbaa !4
  %37 = icmp sgt i32 %36, 1
  br i1 %37, label %38, label %40, !prof !11

38:                                               ; preds = %35
  %39 = add nsw i32 %36, -1
  store i32 %39, ptr %17, align 4, !tbaa !4
  br label %lean_dec.exit19

40:                                               ; preds = %35
  %.not.i = icmp eq i32 %36, 0
  br i1 %.not.i, label %lean_dec.exit19, label %41

41:                                               ; preds = %40
  tail call void @lean_dec_ref_cold(ptr noundef nonnull %17) #8
  br label %lean_dec.exit19

lean_dec.exit19:                                  ; preds = %41, %40, %38, %lean_inc.exit
  %42 = load ptr, ptr @l___private_Lean_Compiler_LCNF_SpecInfo_0__Lean_Compiler_LCNF_isNoSpecType___closed__1, align 8, !tbaa !9
  %43 = tail call zeroext i8 @l_Lean_TagAttribute_hasTag(ptr noundef %42, ptr noundef %0, ptr noundef %26) #8
  br i1 %.not34, label %44, label %lean_dec.exit18

44:                                               ; preds = %lean_dec.exit19
  %45 = load i32, ptr %26, align 4, !tbaa !4
  %46 = icmp sgt i32 %45, 1
  br i1 %46, label %47, label %49, !prof !11

47:                                               ; preds = %44
  %48 = add nsw i32 %45, -1
  store i32 %48, ptr %26, align 4, !tbaa !4
  br label %lean_dec.exit18

49:                                               ; preds = %44
  %.not.i20 = icmp eq i32 %45, 0
  br i1 %.not.i20, label %lean_dec.exit18, label %50

50:                                               ; preds = %49
  tail call void @lean_dec_ref_cold(ptr noundef nonnull %26) #8
  br label %lean_dec.exit18

.thread:                                          ; preds = %lean_obj_tag.exit30.thread
  %51 = load i32, ptr %17, align 4, !tbaa !4
  %52 = icmp sgt i32 %51, 1
  br i1 %52, label %53, label %55, !prof !11

53:                                               ; preds = %.thread
  %54 = add nsw i32 %51, -1
  store i32 %54, ptr %17, align 4, !tbaa !4
  br label %lean_dec.exit17

55:                                               ; preds = %.thread
  %.not.i22 = icmp eq i32 %51, 0
  br i1 %.not.i22, label %lean_dec.exit17, label %56

56:                                               ; preds = %55
  tail call void @lean_dec_ref_cold(ptr noundef nonnull %17) #8
  br label %lean_dec.exit17

lean_dec.exit17:                                  ; preds = %lean_obj_tag.exit30, %56, %55, %53
  %57 = ptrtoint ptr %0 to i64
  %58 = and i64 %57, 1
  %.not = icmp eq i64 %58, 0
  br i1 %.not, label %59, label %lean_dec.exit18

59:                                               ; preds = %lean_dec.exit17
  %60 = load i32, ptr %0, align 4, !tbaa !4
  %61 = icmp sgt i32 %60, 1
  br i1 %61, label %62, label %64, !prof !11

62:                                               ; preds = %59
  %63 = add nsw i32 %60, -1
  store i32 %63, ptr %0, align 4, !tbaa !4
  br label %lean_dec.exit18

64:                                               ; preds = %59
  %.not.i24 = icmp eq i32 %60, 0
  br i1 %.not.i24, label %lean_dec.exit18, label %65

65:                                               ; preds = %64
  tail call void @lean_dec_ref_cold(ptr noundef nonnull %0) #8
  br label %lean_dec.exit18

lean_dec.exit18:                                  ; preds = %lean_dec.exit17, %62, %64, %65, %lean_dec.exit19, %47, %49, %50
  %.0 = phi i8 [ %43, %50 ], [ %43, %49 ], [ %43, %47 ], [ %43, %lean_dec.exit19 ], [ 0, %65 ], [ 0, %64 ], [ 0, %62 ], [ 0, %lean_dec.exit17 ]
  ret i8 %.0
}